; Function Attrs: mustprogress nounwind uwtable
define hidden noundef ptr @_ZNK16EncodePKlassNode5ValueEP8PhaseGVN(ptr nocapture noundef nonnull readonly align 8 dereferenceable(64) %0, ptr nocapture noundef readonly %1) unnamed_addr #1 align 2 {
  %3 = getelementptr inbounds i8, ptr %0, i64 8
  %4 = load ptr, ptr %3, align 8
  %5 = getelementptr inbounds i8, ptr %4, i64 8
  %6 = load ptr, ptr %5, align 8
  %7 = getelementptr inbounds i8, ptr %1, i64 40
  %8 = load ptr, ptr %7, align 8
  %9 = getelementptr inbounds i8, ptr %6, i64 40
  %10 = load i32, ptr %9, align 8
  %11 = getelementptr inbounds i8, ptr %8, i64 16
  %12 = load ptr, ptr %11, align 8
  %13 = zext i32 %10 to i64
  %14 = getelementptr inbounds ptr, ptr %12, i64 %13
  %15 = load ptr, ptr %14, align 8
  %16 = load ptr, ptr @_ZN4Type3TOPE, align 8
  %17 = icmp eq ptr %15, %16
  br i1 %17, label %_ZNK4Type16make_narrowklassEv.exit, label %18

18:                                               ; preds = %2
  %19 = getelementptr inbounds i8, ptr %15, i64 16
  %20 = load i32, ptr %19, align 8
  %21 = icmp eq i32 %20, 7
  br i1 %21, label %_ZNK4Type16make_narrowklassEv.exit, label %22

22:                                               ; preds = %18
  %23 = add i32 %20, -27
  %or.cond.i.i = icmp ult i32 %23, -9
  br i1 %or.cond.i.i, label %_ZNK4Type16make_narrowklassEv.exit, label %24

24:                                               ; preds = %22
  %25 = tail call noundef ptr @_ZN15TypeNarrowKlass4makeEPK7TypePtr(ptr noundef nonnull %15) #3
  br label %_ZNK4Type16make_narrowklassEv.exit

_ZNK4Type16make_narrowklassEv.exit:               ; preds = %24, %22, %18, %2
  %.0 = phi ptr [ %16, %2 ], [ %25, %24 ], [ null, %22 ], [ %15, %18 ]
  ret ptr %.0
}